; Function Attrs: mustprogress uwtable
define noundef nonnull ptr @_ZN7rocksdb20NewPlainTableFactoryERKNS_17PlainTableOptionsE(ptr noundef nonnull align 8 dereferenceable(35) %0) local_unnamed_addr #4 personality ptr @__gxx_personality_v0 {
  %2 = tail call noalias noundef nonnull dereferenceable(72) ptr @_Znwm(i64 noundef 72) #29
  invoke void @_ZN7rocksdb17PlainTableFactoryC1ERKNS_17PlainTableOptionsE(ptr noundef nonnull align 8 dereferenceable(72) %2, ptr noundef nonnull align 8 dereferenceable(35) %0)
          to label %3 unwind label %4

3:                                                ; preds = %1
  ret ptr %2

4:                                                ; preds = %1
  %5 = landingpad { ptr, i32 }
          cleanup
  tail call void @_ZdlPvm(ptr noundef nonnull %2, i64 noundef 72) #26
  resume { ptr, i32 } %5
}